; Function Attrs: mustprogress nofree norecurse nosync nounwind willreturn memory(argmem: read) uwtable
define dso_local noundef range(i32 0, 16777216) i32 @_ZNK4llvm12MachineInstr14mergeFlagsWithERKS0_(ptr nocapture noundef nonnull readonly align 8 dereferenceable(70) %0, ptr nocapture noundef nonnull readonly align 8 dereferenceable(70) %1) local_unnamed_addr #6 align 2 {
  %3 = getelementptr inbounds nuw i8, ptr %0, i64 44
  %4 = load i32, ptr %3, align 4
  %5 = getelementptr inbounds nuw i8, ptr %1, i64 44
  %6 = load i32, ptr %5, align 4
  %7 = or i32 %6, %4
  %8 = and i32 %7, 16777215
  ret i32 %8
}